; ModuleID = '31/1552.c'
source_filename = "31/1552.c"
target datalayout = "e-m:e-p270:32:32-p271:32:32-p272:64:64-i64:64-f80:128-n8:16:32:64-S128"
target triple = "x86_64-pc-linux-gnu"

%struct.student = type { [50 x i8], %struct.student* }

@.str = private unnamed_addr constant [4 x i8] c"end\00", align 1

; Function Attrs: noinline nounwind uwtable
define dso_local void @main() #0 {
  %1 = alloca %struct.student*, align 8
  %2 = alloca %struct.student*, align 8
  %3 = alloca %struct.student*, align 8
  %4 = alloca %struct.student*, align 8
  %5 = alloca %struct.student*, align 8
  store %struct.student* null, %struct.student** %2, align 8
  store %struct.student* null, %struct.student** %4, align 8
  br label %6

6:                                                ; preds = %0, %30
  %7 = call noalias i8* @malloc(i64 100) #4
  %8 = bitcast i8* %7 to %struct.student*
  store %struct.student* %8, %struct.student** %3, align 8
  %9 = load %struct.student*, %struct.student** %3, align 8
  %10 = getelementptr inbounds %struct.student, %struct.student* %9, i32 0, i32 0
  %11 = getelementptr inbounds [50 x i8], [50 x i8]* %10, i64 0, i64 0
  %12 = call i32 (i8*, ...) bitcast (i32 (...)* @gets to i32 (i8*, ...)*)(i8* %11)
  %13 = load %struct.student*, %struct.student** %3, align 8
  %14 = getelementptr inbounds %struct.student, %struct.student* %13, i32 0, i32 0
  %15 = getelementptr inbounds [50 x i8], [50 x i8]* %14, i64 0, i64 0
  %16 = call i32 @strcmp(i8* %15, i8* getelementptr inbounds ([4 x i8], [4 x i8]* @.str, i64 0, i64 0)) #5
  %17 = icmp eq i32 %16, 0
  br i1 %17, label %18, label %19

18:                                               ; preds = %6
  br label %32

19:                                               ; preds = %6
  %20 = load %struct.student*, %struct.student** %2, align 8
  %21 = icmp eq %struct.student* %20, null
  br i1 %21, label %22, label %26

22:                                               ; preds = %19
  %23 = load %struct.student*, %struct.student** %3, align 8
  store %struct.student* %23, %struct.student** %2, align 8
  %24 = load %struct.student*, %struct.student** %2, align 8
  %25 = getelementptr inbounds %struct.student, %struct.student* %24, i32 0, i32 1
  store %struct.student* null, %struct.student** %25, align 8
  br label %30

26:                                               ; preds = %19
  %27 = load %struct.student*, %struct.student** %4, align 8
  %28 = load %struct.student*, %struct.student** %3, align 8
  %29 = getelementptr inbounds %struct.student, %struct.student* %28, i32 0, i32 1
  store %struct.student* %27, %struct.student** %29, align 8
  br label %30

30:                                               ; preds = %26, %22
  %31 = load %struct.student*, %struct.student** %3, align 8
  store %struct.student* %31, %struct.student** %4, align 8
  br label %6

32:                                               ; preds = %18
  %33 = load %struct.student*, %struct.student** %4, align 8
  store %struct.student* %33, %struct.student** %5, align 8
  %34 = load %struct.student*, %struct.student** %5, align 8
  %35 = icmp ne %struct.student* %34, null
  br i1 %35, label %36, label %49

36:                                               ; preds = %32
  br label %37

37:                                               ; preds = %40, %36
  %38 = load %struct.student*, %struct.student** %5, align 8
  %39 = icmp ne %struct.student* %38, null
  br i1 %39, label %40, label %48

40:                                               ; preds = %37
  %41 = load %struct.student*, %struct.student** %5, align 8
  %42 = getelementptr inbounds %struct.student, %struct.student* %41, i32 0, i32 0
  %43 = getelementptr inbounds [50 x i8], [50 x i8]* %42, i64 0, i64 0
  %44 = call i32 @puts(i8* %43)
  %45 = load %struct.student*, %struct.student** %5, align 8
  %46 = getelementptr inbounds %struct.student, %struct.student* %45, i32 0, i32 1
  %47 = load %struct.student*, %struct.student** %46, align 8
  store %struct.student* %47, %struct.student** %5, align 8
  br label %37

48:                                               ; preds = %37
  br label %49

49:                                               ; preds = %48, %32
  ret void
}

; Function Attrs: nounwind
declare dso_local noalias i8* @malloc(i64) #1

declare dso_local i32 @gets(...) #2

; Function Attrs: nounwind readonly
declare dso_local i32 @strcmp(i8*, i8*) #3

declare dso_local i32 @puts(i8*) #2


!llvm.module.flags = !{!0}
!llvm.ident = !{!1}

!0 = !{i32 1, !"wchar_size", i32 4}
!1 = !{!"clang version 10.0.0-4ubuntu1 "}
